; Function Attrs: mustprogress nounwind uwtable
define internal void @"_ZN7doctest6detail12ContextScopeIZN5utilsL19DOCTEST_ANON_FUNC_2EvE3$_0ED2Ev"(ptr noundef nonnull align 8 dereferenceable(10) %this) unnamed_addr #4 align 2 personality ptr @__gxx_personality_v0 {
entry:
  store ptr getelementptr inbounds ({ [5 x ptr] }, ptr @"_ZTVN7doctest6detail12ContextScopeIZN5utilsL19DOCTEST_ANON_FUNC_2EvE3$_0EE", i64 0, i32 0, i64 2), ptr %this, align 8
  %need_to_destroy = getelementptr inbounds i8, ptr %this, i64 8
  %0 = load i8, ptr %need_to_destroy, align 8
  %1 = and i8 %0, 1
  %tobool.not = icmp eq i8 %1, 0
  br i1 %tobool.not, label %if.end, label %if.then

if.then:                                          ; preds = %entry
  invoke void @_ZN7doctest6detail16ContextScopeBase7destroyEv(ptr noundef nonnull align 8 dereferenceable(9) %this)
          to label %if.end unwind label %terminate.lpad

if.end:                                           ; preds = %if.then, %entry
  tail call void @_ZN7doctest13IContextScopeD2Ev(ptr noundef nonnull align 8 dereferenceable(8) %this) #21
  ret void

terminate.lpad:                                   ; preds = %if.then
  %2 = landingpad { ptr, i32 }
          catch ptr null
  %3 = extractvalue { ptr, i32 } %2, 0
  tail call void @__clang_call_terminate(ptr %3) #22
  unreachable
}